; ModuleID = 'source-C-CXX/10/785.c'
source_filename = "source-C-CXX/10/785.c"
target datalayout = "e-m:e-p270:32:32-p271:32:32-p272:64:64-i64:64-f80:128-n8:16:32:64-S128"
target triple = "x86_64-pc-linux-gnu"

%struct._IO_FILE = type { i32, i8*, i8*, i8*, i8*, i8*, i8*, i8*, i8*, i8*, i8*, i8*, %struct._IO_marker*, %struct._IO_FILE*, i32, i32, i64, i16, i8, [1 x i8], i8*, i64, %struct._IO_codecvt*, %struct._IO_wide_data*, %struct._IO_FILE*, i8*, i64, i32, [20 x i8] }
%struct._IO_marker = type opaque
%struct._IO_codecvt = type opaque
%struct._IO_wide_data = type opaque

@.str = private unnamed_addr constant [9 x i8] c"%d %d %d\00", align 1
@.str.1 = private unnamed_addr constant [3 x i8] c"%d\00", align 1
@stdin = external local_unnamed_addr global %struct._IO_FILE*, align 8

; Function Attrs: nofree nounwind sspstrong uwtable
define dso_local i32 @main() local_unnamed_addr #0 {
  %1 = alloca i32, align 4
  %2 = alloca i32, align 4
  %3 = alloca i32, align 4
  %4 = bitcast i32* %1 to i8*
  call void @llvm.lifetime.start.p0i8(i64 4, i8* nonnull %4) #4
  %5 = bitcast i32* %2 to i8*
  call void @llvm.lifetime.start.p0i8(i64 4, i8* nonnull %5) #4
  %6 = bitcast i32* %3 to i8*
  call void @llvm.lifetime.start.p0i8(i64 4, i8* nonnull %6) #4
  %7 = call i32 (i8*, ...) @__isoc99_scanf(i8* getelementptr inbounds ([9 x i8], [9 x i8]* @.str, i64 0, i64 0), i32* nonnull %1, i32* nonnull %2, i32* nonnull %3)
  %8 = load i32, i32* %1, align 4, !tbaa !5
  %9 = and i32 %8, 3
  %10 = icmp eq i32 %9, 0
  %11 = srem i32 %8, 100
  %12 = icmp ne i32 %11, 0
  %13 = and i1 %10, %12
  %14 = srem i32 %8, 400
  %15 = icmp eq i32 %14, 0
  %16 = select i1 %13, i1 true, i1 %15
  %17 = load i32, i32* %2, align 4, !tbaa !5
  br i1 %16, label %18, label %54

18:                                               ; preds = %0
  switch i32 %17, label %51 [
    i32 1, label %19
    i32 2, label %21
    i32 3, label %24
    i32 4, label %27
    i32 5, label %30
    i32 6, label %33
    i32 7, label %36
    i32 8, label %39
    i32 9, label %42
    i32 10, label %45
    i32 11, label %48
  ]

19:                                               ; preds = %18
  %20 = load i32, i32* %3, align 4, !tbaa !5
  br label %90

21:                                               ; preds = %18
  %22 = load i32, i32* %3, align 4, !tbaa !5
  %23 = add nsw i32 %22, 31
  br label %90

24:                                               ; preds = %18
  %25 = load i32, i32* %3, align 4, !tbaa !5
  %26 = add nsw i32 %25, 60
  br label %90

27:                                               ; preds = %18
  %28 = load i32, i32* %3, align 4, !tbaa !5
  %29 = add nsw i32 %28, 91
  br label %90

30:                                               ; preds = %18
  %31 = load i32, i32* %3, align 4, !tbaa !5
  %32 = add nsw i32 %31, 121
  br label %90

33:                                               ; preds = %18
  %34 = load i32, i32* %3, align 4, !tbaa !5
  %35 = add nsw i32 %34, 152
  br label %90

36:                                               ; preds = %18
  %37 = load i32, i32* %3, align 4, !tbaa !5
  %38 = add nsw i32 %37, 182
  br label %90

39:                                               ; preds = %18
  %40 = load i32, i32* %3, align 4, !tbaa !5
  %41 = add nsw i32 %40, 213
  br label %90

42:                                               ; preds = %18
  %43 = load i32, i32* %3, align 4, !tbaa !5
  %44 = add nsw i32 %43, 244
  br label %90

45:                                               ; preds = %18
  %46 = load i32, i32* %3, align 4, !tbaa !5
  %47 = add nsw i32 %46, 274
  br label %90

48:                                               ; preds = %18
  %49 = load i32, i32* %3, align 4, !tbaa !5
  %50 = add nsw i32 %49, 305
  br label %90

51:                                               ; preds = %18
  %52 = load i32, i32* %3, align 4, !tbaa !5
  %53 = add nsw i32 %52, 335
  br label %90

54:                                               ; preds = %0
  switch i32 %17, label %87 [
    i32 1, label %55
    i32 2, label %57
    i32 3, label %60
    i32 4, label %63
    i32 5, label %66
    i32 6, label %69
    i32 7, label %72
    i32 8, label %75
    i32 9, label %78
    i32 10, label %81
    i32 11, label %84
  ]

55:                                               ; preds = %54
  %56 = load i32, i32* %3, align 4, !tbaa !5
  br label %90

57:                                               ; preds = %54
  %58 = load i32, i32* %3, align 4, !tbaa !5
  %59 = add nsw i32 %58, 31
  br label %90

60:                                               ; preds = %54
  %61 = load i32, i32* %3, align 4, !tbaa !5
  %62 = add nsw i32 %61, 59
  br label %90

63:                                               ; preds = %54
  %64 = load i32, i32* %3, align 4, !tbaa !5
  %65 = add nsw i32 %64, 90
  br label %90

66:                                               ; preds = %54
  %67 = load i32, i32* %3, align 4, !tbaa !5
  %68 = add nsw i32 %67, 120
  br label %90

69:                                               ; preds = %54
  %70 = load i32, i32* %3, align 4, !tbaa !5
  %71 = add nsw i32 %70, 151
  br label %90

72:                                               ; preds = %54
  %73 = load i32, i32* %3, align 4, !tbaa !5
  %74 = add nsw i32 %73, 181
  br label %90

75:                                               ; preds = %54
  %76 = load i32, i32* %3, align 4, !tbaa !5
  %77 = add nsw i32 %76, 212
  br label %90

78:                                               ; preds = %54
  %79 = load i32, i32* %3, align 4, !tbaa !5
  %80 = add nsw i32 %79, 243
  br label %90

81:                                               ; preds = %54
  %82 = load i32, i32* %3, align 4, !tbaa !5
  %83 = add nsw i32 %82, 273
  br label %90

84:                                               ; preds = %54
  %85 = load i32, i32* %3, align 4, !tbaa !5
  %86 = add nsw i32 %85, 304
  br label %90

87:                                               ; preds = %54
  %88 = load i32, i32* %3, align 4, !tbaa !5
  %89 = add nsw i32 %88, 334
  br label %90

90:                                               ; preds = %55, %60, %66, %72, %78, %84, %87, %81, %75, %69, %63, %57, %19, %24, %30, %36, %42, %48, %51, %45, %39, %33, %27, %21
  %91 = phi i32 [ %56, %55 ], [ %62, %60 ], [ %68, %66 ], [ %74, %72 ], [ %80, %78 ], [ %86, %84 ], [ %89, %87 ], [ %83, %81 ], [ %77, %75 ], [ %71, %69 ], [ %65, %63 ], [ %59, %57 ], [ %20, %19 ], [ %26, %24 ], [ %32, %30 ], [ %38, %36 ], [ %44, %42 ], [ %50, %48 ], [ %53, %51 ], [ %47, %45 ], [ %41, %39 ], [ %35, %33 ], [ %29, %27 ], [ %23, %21 ]
  %92 = call i32 (i8*, ...) @printf(i8* nonnull dereferenceable(1) getelementptr inbounds ([3 x i8], [3 x i8]* @.str.1, i64 0, i64 0), i32 %91)
  %93 = call i32 @putchar(i32 10)
  %94 = load %struct._IO_FILE*, %struct._IO_FILE** @stdin, align 8, !tbaa !9
  %95 = call i32 @getc(%struct._IO_FILE* %94) #4
  call void @llvm.lifetime.end.p0i8(i64 4, i8* nonnull %6) #4
  call void @llvm.lifetime.end.p0i8(i64 4, i8* nonnull %5) #4
  call void @llvm.lifetime.end.p0i8(i64 4, i8* nonnull %4) #4
  ret i32 0
}

; Function Attrs: argmemonly mustprogress nofree nosync nounwind willreturn
declare void @llvm.lifetime.start.p0i8(i64 immarg, i8* nocapture) #1

; Function Attrs: nofree nounwind
declare noundef i32 @__isoc99_scanf(i8* nocapture noundef readonly, ...) local_unnamed_addr #2

; Function Attrs: nofree nounwind
declare noundef i32 @printf(i8* nocapture noundef readonly, ...) local_unnamed_addr #2

; Function Attrs: argmemonly mustprogress nofree nosync nounwind willreturn
declare void @llvm.lifetime.end.p0i8(i64 immarg, i8* nocapture) #1

; Function Attrs: nofree nounwind
declare noundef i32 @getc(%struct._IO_FILE* nocapture noundef) local_unnamed_addr #2

; Function Attrs: nofree nounwind
declare noundef i32 @putchar(i32 noundef) local_unnamed_addr #3


!llvm.module.flags = !{!0, !1, !2, !3}
!llvm.ident = !{!4}

!0 = !{i32 1, !"wchar_size", i32 4}
!1 = !{i32 7, !"PIC Level", i32 2}
!2 = !{i32 7, !"PIE Level", i32 2}
!3 = !{i32 7, !"uwtable", i32 1}
!4 = !{!"clang version 13.0.0"}
!5 = !{!6, !6, i64 0}
!6 = !{!"int", !7, i64 0}
!7 = !{!"omnipotent char", !8, i64 0}
!8 = !{!"Simple C/C++ TBAA"}
!9 = !{!10, !10, i64 0}
!10 = !{!"any pointer", !7, i64 0}
